	.file	"ej13rec.c"
	.text
	.globl	fact1
	.type	fact1, @function
fact1:
.LFB0:
	.cfi_startproc
	pushq	%rbp
	.cfi_def_cfa_offset 16
	.cfi_offset 6, -16
	movq	%rsp, %rbp
	.cfi_def_cfa_register 6
	subq	$16, %rsp
	movq	%rdi, -8(%rbp)
	cmpq	$1, -8(%rbp)
	ja	.L2
	movq	-8(%rbp), %rax
	jmp	.L3
.L2:
	movq	-8(%rbp), %rax
	subq	$1, %rax
	movq	%rax, %rdi
	call	fact1
	imulq	-8(%rbp), %rax
.L3:
	leave
	.cfi_def_cfa 7, 8
	ret
	.cfi_endproc
.LFE0:
	.size	fact1, .-fact1
	.section	.rodata
.LC0:
	.string	"%lu"
.LC1:
	.string	"fact: %lu\n"
	.text
	.globl	main
	.type	main, @function
main:
.LFB1:
	.cfi_startproc
	pushq	%rbp
	.cfi_def_cfa_offset 16
	.cfi_offset 6, -16
	movq	%rsp, %rbp
	.cfi_def_cfa_register 6
	subq	$16, %rsp
	leaq	-8(%rbp), %rax
	movq	%rax, %rsi
	leaq	.LC0(%rip), %rax
	movq	%rax, %rdi
	movl	$0, %eax
	call	__isoc99_scanf@PLT
	movq	-8(%rbp), %rax
	movq	%rax, %rdi
	call	fact1
	movq	%rax, %rsi
	leaq	.LC1(%rip), %rax
	movq	%rax, %rdi
	movl	$0, %eax
	call	printf@PLT
	movl	$0, %eax
	leave
	.cfi_def_cfa 7, 8
	ret
	.cfi_endproc
.LFE1:
	.size	main, .-main
	.ident	"GCC: (Debian 14.2.0-19) 14.2.0"
	.section	.note.GNU-stack,"",@progbits
